target datalayout = "e-m:e-p270:32:32-p271:32:32-p272:64:64-i64:64-i128:128-f80:128-n8:16:32:64-S128"
target triple = "x86_64-pc-linux-gnu"

%"struct.cv::ximgproc::EdgeDrawing::Params" = type { i8, i32, i32, i32, i32, i32, float, i8, i8, i32, double, double, double }
%"class.cv::FileNode" = type { ptr, i64, i64 }

@.str.2 = private unnamed_addr constant [7 x i8] c"PFmode\00", align 1
@.str.3 = private unnamed_addr constant [22 x i8] c"EdgeDetectionOperator\00", align 1
@.str.4 = private unnamed_addr constant [23 x i8] c"GradientThresholdValue\00", align 1
@.str.5 = private unnamed_addr constant [21 x i8] c"AnchorThresholdValue\00", align 1
@.str.6 = private unnamed_addr constant [13 x i8] c"ScanInterval\00", align 1
@.str.7 = private unnamed_addr constant [14 x i8] c"MinPathLength\00", align 1
@.str.8 = private unnamed_addr constant [6 x i8] c"Sigma\00", align 1
@.str.9 = private unnamed_addr constant [8 x i8] c"SumFlag\00", align 1
@.str.10 = private unnamed_addr constant [14 x i8] c"NFAValidation\00", align 1
@.str.11 = private unnamed_addr constant [14 x i8] c"MinLineLength\00", align 1
@.str.12 = private unnamed_addr constant [27 x i8] c"MaxDistanceBetweenTwoLines\00", align 1
@.str.13 = private unnamed_addr constant [22 x i8] c"LineFitErrorThreshold\00", align 1
@.str.14 = private unnamed_addr constant [18 x i8] c"MaxErrorThreshold\00", align 1

; Function Attrs: mustprogress uwtable
define void @_ZN2cv8ximgproc11EdgeDrawing6Params4readERKNS_8FileNodeE(ptr noundef nonnull align 8 dereferenceable(64) %0, ptr noundef nonnull align 8 dereferenceable(24) %1) #4 align 2 {
  %3 = alloca ptr, align 8
  %4 = alloca ptr, align 8
  %5 = alloca %"class.cv::FileNode", align 8
  %6 = alloca %"class.cv::FileNode", align 8
  %7 = alloca %"class.cv::FileNode", align 8
  %8 = alloca %"class.cv::FileNode", align 8
  %9 = alloca %"class.cv::FileNode", align 8
  %10 = alloca %"class.cv::FileNode", align 8
  %11 = alloca %"class.cv::FileNode", align 8
  %12 = alloca %"class.cv::FileNode", align 8
  %13 = alloca %"class.cv::FileNode", align 8
  %14 = alloca %"class.cv::FileNode", align 8
  %15 = alloca %"class.cv::FileNode", align 8
  %16 = alloca %"class.cv::FileNode", align 8
  %17 = alloca %"class.cv::FileNode", align 8
  store ptr %0, ptr %3, align 8, !tbaa !91
  store ptr %1, ptr %4, align 8, !tbaa !113
  %18 = load ptr, ptr %3, align 8
  call void @llvm.lifetime.start.p0(i64 24, ptr %5) #3
  %19 = load ptr, ptr %4, align 8, !tbaa !113
  call void @_ZNK2cv8FileNodeixEPKc(ptr dead_on_unwind writable sret(%"class.cv::FileNode") align 8 %5, ptr noundef nonnull align 8 dereferenceable(24) %19, ptr noundef @.str.2)
  %20 = call noundef i32 @_ZNK2cv8FileNodecviEv(ptr noundef nonnull align 8 dereferenceable(24) %5)
  %21 = icmp ne i32 %20, 0
  %22 = select i1 %21, i1 true, i1 false
  %23 = getelementptr inbounds nuw %"struct.cv::ximgproc::EdgeDrawing::Params", ptr %18, i32 0, i32 0
  %24 = zext i1 %22 to i8
  store i8 %24, ptr %23, align 8, !tbaa !93
  call void @llvm.lifetime.end.p0(i64 24, ptr %5) #3
  call void @llvm.lifetime.start.p0(i64 24, ptr %6) #3
  %25 = load ptr, ptr %4, align 8, !tbaa !113
  call void @_ZNK2cv8FileNodeixEPKc(ptr dead_on_unwind writable sret(%"class.cv::FileNode") align 8 %6, ptr noundef nonnull align 8 dereferenceable(24) %25, ptr noundef @.str.3)
  %26 = call noundef i32 @_ZNK2cv8FileNodecviEv(ptr noundef nonnull align 8 dereferenceable(24) %6)
  %27 = getelementptr inbounds nuw %"struct.cv::ximgproc::EdgeDrawing::Params", ptr %18, i32 0, i32 1
  store i32 %26, ptr %27, align 4, !tbaa !96
  call void @llvm.lifetime.end.p0(i64 24, ptr %6) #3
  call void @llvm.lifetime.start.p0(i64 24, ptr %7) #3
  %28 = load ptr, ptr %4, align 8, !tbaa !113
  call void @_ZNK2cv8FileNodeixEPKc(ptr dead_on_unwind writable sret(%"class.cv::FileNode") align 8 %7, ptr noundef nonnull align 8 dereferenceable(24) %28, ptr noundef @.str.4)
  %29 = call noundef i32 @_ZNK2cv8FileNodecviEv(ptr noundef nonnull align 8 dereferenceable(24) %7)
  %30 = getelementptr inbounds nuw %"struct.cv::ximgproc::EdgeDrawing::Params", ptr %18, i32 0, i32 2
  store i32 %29, ptr %30, align 8, !tbaa !97
  call void @llvm.lifetime.end.p0(i64 24, ptr %7) #3
  call void @llvm.lifetime.start.p0(i64 24, ptr %8) #3
  %31 = load ptr, ptr %4, align 8, !tbaa !113
  call void @_ZNK2cv8FileNodeixEPKc(ptr dead_on_unwind writable sret(%"class.cv::FileNode") align 8 %8, ptr noundef nonnull align 8 dereferenceable(24) %31, ptr noundef @.str.5)
  %32 = call noundef i32 @_ZNK2cv8FileNodecviEv(ptr noundef nonnull align 8 dereferenceable(24) %8)
  %33 = getelementptr inbounds nuw %"struct.cv::ximgproc::EdgeDrawing::Params", ptr %18, i32 0, i32 3
  store i32 %32, ptr %33, align 4, !tbaa !98
  call void @llvm.lifetime.end.p0(i64 24, ptr %8) #3
  call void @llvm.lifetime.start.p0(i64 24, ptr %9) #3
  %34 = load ptr, ptr %4, align 8, !tbaa !113
  call void @_ZNK2cv8FileNodeixEPKc(ptr dead_on_unwind writable sret(%"class.cv::FileNode") align 8 %9, ptr noundef nonnull align 8 dereferenceable(24) %34, ptr noundef @.str.6)
  %35 = call noundef i32 @_ZNK2cv8FileNodecviEv(ptr noundef nonnull align 8 dereferenceable(24) %9)
  %36 = getelementptr inbounds nuw %"struct.cv::ximgproc::EdgeDrawing::Params", ptr %18, i32 0, i32 4
  store i32 %35, ptr %36, align 8, !tbaa !99
  call void @llvm.lifetime.end.p0(i64 24, ptr %9) #3
  call void @llvm.lifetime.start.p0(i64 24, ptr %10) #3
  %37 = load ptr, ptr %4, align 8, !tbaa !113
  call void @_ZNK2cv8FileNodeixEPKc(ptr dead_on_unwind writable sret(%"class.cv::FileNode") align 8 %10, ptr noundef nonnull align 8 dereferenceable(24) %37, ptr noundef @.str.7)
  %38 = call noundef i32 @_ZNK2cv8FileNodecviEv(ptr noundef nonnull align 8 dereferenceable(24) %10)
  %39 = getelementptr inbounds nuw %"struct.cv::ximgproc::EdgeDrawing::Params", ptr %18, i32 0, i32 5
  store i32 %38, ptr %39, align 4, !tbaa !100
  call void @llvm.lifetime.end.p0(i64 24, ptr %10) #3
  call void @llvm.lifetime.start.p0(i64 24, ptr %11) #3
  %40 = load ptr, ptr %4, align 8, !tbaa !113
  call void @_ZNK2cv8FileNodeixEPKc(ptr dead_on_unwind writable sret(%"class.cv::FileNode") align 8 %11, ptr noundef nonnull align 8 dereferenceable(24) %40, ptr noundef @.str.8)
  %41 = call noundef float @_ZNK2cv8FileNodecvfEv(ptr noundef nonnull align 8 dereferenceable(24) %11)
  %42 = getelementptr inbounds nuw %"struct.cv::ximgproc::EdgeDrawing::Params", ptr %18, i32 0, i32 6
  store float %41, ptr %42, align 8, !tbaa !101
  call void @llvm.lifetime.end.p0(i64 24, ptr %11) #3
  call void @llvm.lifetime.start.p0(i64 24, ptr %12) #3
  %43 = load ptr, ptr %4, align 8, !tbaa !113
  call void @_ZNK2cv8FileNodeixEPKc(ptr dead_on_unwind writable sret(%"class.cv::FileNode") align 8 %12, ptr noundef nonnull align 8 dereferenceable(24) %43, ptr noundef @.str.9)
  %44 = call noundef i32 @_ZNK2cv8FileNodecviEv(ptr noundef nonnull align 8 dereferenceable(24) %12)
  %45 = icmp ne i32 %44, 0
  %46 = select i1 %45, i1 true, i1 false
  %47 = getelementptr inbounds nuw %"struct.cv::ximgproc::EdgeDrawing::Params", ptr %18, i32 0, i32 7
  %48 = zext i1 %46 to i8
  store i8 %48, ptr %47, align 4, !tbaa !102
  call void @llvm.lifetime.end.p0(i64 24, ptr %12) #3
  call void @llvm.lifetime.start.p0(i64 24, ptr %13) #3
  %49 = load ptr, ptr %4, align 8, !tbaa !113
  call void @_ZNK2cv8FileNodeixEPKc(ptr dead_on_unwind writable sret(%"class.cv::FileNode") align 8 %13, ptr noundef nonnull align 8 dereferenceable(24) %49, ptr noundef @.str.10)
  %50 = call noundef i32 @_ZNK2cv8FileNodecviEv(ptr noundef nonnull align 8 dereferenceable(24) %13)
  %51 = icmp ne i32 %50, 0
  %52 = select i1 %51, i1 true, i1 false
  %53 = getelementptr inbounds nuw %"struct.cv::ximgproc::EdgeDrawing::Params", ptr %18, i32 0, i32 8
  %54 = zext i1 %52 to i8
  store i8 %54, ptr %53, align 1, !tbaa !103
  call void @llvm.lifetime.end.p0(i64 24, ptr %13) #3
  call void @llvm.lifetime.start.p0(i64 24, ptr %14) #3
  %55 = load ptr, ptr %4, align 8, !tbaa !113
  call void @_ZNK2cv8FileNodeixEPKc(ptr dead_on_unwind writable sret(%"class.cv::FileNode") align 8 %14, ptr noundef nonnull align 8 dereferenceable(24) %55, ptr noundef @.str.11)
  %56 = call noundef i32 @_ZNK2cv8FileNodecviEv(ptr noundef nonnull align 8 dereferenceable(24) %14)
  %57 = getelementptr inbounds nuw %"struct.cv::ximgproc::EdgeDrawing::Params", ptr %18, i32 0, i32 9
  store i32 %56, ptr %57, align 8, !tbaa !104
  call void @llvm.lifetime.end.p0(i64 24, ptr %14) #3
  call void @llvm.lifetime.start.p0(i64 24, ptr %15) #3
  %58 = load ptr, ptr %4, align 8, !tbaa !113
  call void @_ZNK2cv8FileNodeixEPKc(ptr dead_on_unwind writable sret(%"class.cv::FileNode") align 8 %15, ptr noundef nonnull align 8 dereferenceable(24) %58, ptr noundef @.str.12)
  %59 = call noundef double @_ZNK2cv8FileNodecvdEv(ptr noundef nonnull align 8 dereferenceable(24) %15)
  %60 = getelementptr inbounds nuw %"struct.cv::ximgproc::EdgeDrawing::Params", ptr %18, i32 0, i32 10
  store double %59, ptr %60, align 8, !tbaa !105
  call void @llvm.lifetime.end.p0(i64 24, ptr %15) #3
  call void @llvm.lifetime.start.p0(i64 24, ptr %16) #3
  %61 = load ptr, ptr %4, align 8, !tbaa !113
  call void @_ZNK2cv8FileNodeixEPKc(ptr dead_on_unwind writable sret(%"class.cv::FileNode") align 8 %16, ptr noundef nonnull align 8 dereferenceable(24) %61, ptr noundef @.str.13)
  %62 = call noundef double @_ZNK2cv8FileNodecvdEv(ptr noundef nonnull align 8 dereferenceable(24) %16)
  %63 = getelementptr inbounds nuw %"struct.cv::ximgproc::EdgeDrawing::Params", ptr %18, i32 0, i32 11
  store double %62, ptr %63, align 8, !tbaa !106
  call void @llvm.lifetime.end.p0(i64 24, ptr %16) #3
  call void @llvm.lifetime.start.p0(i64 24, ptr %17) #3
  %64 = load ptr, ptr %4, align 8, !tbaa !113
  call void @_ZNK2cv8FileNodeixEPKc(ptr dead_on_unwind writable sret(%"class.cv::FileNode") align 8 %17, ptr noundef nonnull align 8 dereferenceable(24) %64, ptr noundef @.str.14)
  %65 = call noundef double @_ZNK2cv8FileNodecvdEv(ptr noundef nonnull align 8 dereferenceable(24) %17)
  %66 = getelementptr inbounds nuw %"struct.cv::ximgproc::EdgeDrawing::Params", ptr %18, i32 0, i32 12
  store double %65, ptr %66, align 8, !tbaa !107
  call void @llvm.lifetime.end.p0(i64 24, ptr %17) #3
  ret void
}