; Function Attrs: mustprogress uwtable
define void @_ZN2cv8ximgproc11EdgeDrawing6Params4readERKNS_8FileNodeE(ptr noundef nonnull writeonly align 8 captures(none) dereferenceable(64) initializes((0, 1), (4, 30), (32, 36), (40, 64)) %0, ptr noundef nonnull align 8 dereferenceable(24) %1) local_unnamed_addr #3 align 2 {
  %3 = alloca %"class.cv::FileNode", align 8
  %4 = alloca %"class.cv::FileNode", align 8
  %5 = alloca %"class.cv::FileNode", align 8
  %6 = alloca %"class.cv::FileNode", align 8
  %7 = alloca %"class.cv::FileNode", align 8
  %8 = alloca %"class.cv::FileNode", align 8
  %9 = alloca %"class.cv::FileNode", align 8
  %10 = alloca %"class.cv::FileNode", align 8
  %11 = alloca %"class.cv::FileNode", align 8
  %12 = alloca %"class.cv::FileNode", align 8
  %13 = alloca %"class.cv::FileNode", align 8
  %14 = alloca %"class.cv::FileNode", align 8
  %15 = alloca %"class.cv::FileNode", align 8
  call void @llvm.lifetime.start.p0(i64 24, ptr nonnull %3) #41
  call void @_ZNK2cv8FileNodeixEPKc(ptr dead_on_unwind nonnull writable sret(%"class.cv::FileNode") align 8 %3, ptr noundef nonnull align 8 dereferenceable(24) %1, ptr noundef nonnull @.str.2)
  %16 = call noundef i32 @_ZNK2cv8FileNodecviEv(ptr noundef nonnull align 8 dereferenceable(24) %3)
  %17 = icmp ne i32 %16, 0
  %18 = zext i1 %17 to i8
  store i8 %18, ptr %0, align 8, !tbaa !86
  call void @llvm.lifetime.end.p0(i64 24, ptr nonnull %3) #41
  call void @llvm.lifetime.start.p0(i64 24, ptr nonnull %4) #41
  call void @_ZNK2cv8FileNodeixEPKc(ptr dead_on_unwind nonnull writable sret(%"class.cv::FileNode") align 8 %4, ptr noundef nonnull align 8 dereferenceable(24) %1, ptr noundef nonnull @.str.3)
  %19 = call noundef i32 @_ZNK2cv8FileNodecviEv(ptr noundef nonnull align 8 dereferenceable(24) %4)
  %20 = getelementptr inbounds nuw i8, ptr %0, i64 4
  store i32 %19, ptr %20, align 4, !tbaa !89
  call void @llvm.lifetime.end.p0(i64 24, ptr nonnull %4) #41
  call void @llvm.lifetime.start.p0(i64 24, ptr nonnull %5) #41
  call void @_ZNK2cv8FileNodeixEPKc(ptr dead_on_unwind nonnull writable sret(%"class.cv::FileNode") align 8 %5, ptr noundef nonnull align 8 dereferenceable(24) %1, ptr noundef nonnull @.str.4)
  %21 = call noundef i32 @_ZNK2cv8FileNodecviEv(ptr noundef nonnull align 8 dereferenceable(24) %5)
  %22 = getelementptr inbounds nuw i8, ptr %0, i64 8
  store i32 %21, ptr %22, align 8, !tbaa !90
  call void @llvm.lifetime.end.p0(i64 24, ptr nonnull %5) #41
  call void @llvm.lifetime.start.p0(i64 24, ptr nonnull %6) #41
  call void @_ZNK2cv8FileNodeixEPKc(ptr dead_on_unwind nonnull writable sret(%"class.cv::FileNode") align 8 %6, ptr noundef nonnull align 8 dereferenceable(24) %1, ptr noundef nonnull @.str.5)
  %23 = call noundef i32 @_ZNK2cv8FileNodecviEv(ptr noundef nonnull align 8 dereferenceable(24) %6)
  %24 = getelementptr inbounds nuw i8, ptr %0, i64 12
  store i32 %23, ptr %24, align 4, !tbaa !91
  call void @llvm.lifetime.end.p0(i64 24, ptr nonnull %6) #41
  call void @llvm.lifetime.start.p0(i64 24, ptr nonnull %7) #41
  call void @_ZNK2cv8FileNodeixEPKc(ptr dead_on_unwind nonnull writable sret(%"class.cv::FileNode") align 8 %7, ptr noundef nonnull align 8 dereferenceable(24) %1, ptr noundef nonnull @.str.6)
  %25 = call noundef i32 @_ZNK2cv8FileNodecviEv(ptr noundef nonnull align 8 dereferenceable(24) %7)
  %26 = getelementptr inbounds nuw i8, ptr %0, i64 16
  store i32 %25, ptr %26, align 8, !tbaa !92
  call void @llvm.lifetime.end.p0(i64 24, ptr nonnull %7) #41
  call void @llvm.lifetime.start.p0(i64 24, ptr nonnull %8) #41
  call void @_ZNK2cv8FileNodeixEPKc(ptr dead_on_unwind nonnull writable sret(%"class.cv::FileNode") align 8 %8, ptr noundef nonnull align 8 dereferenceable(24) %1, ptr noundef nonnull @.str.7)
  %27 = call noundef i32 @_ZNK2cv8FileNodecviEv(ptr noundef nonnull align 8 dereferenceable(24) %8)
  %28 = getelementptr inbounds nuw i8, ptr %0, i64 20
  store i32 %27, ptr %28, align 4, !tbaa !93
  call void @llvm.lifetime.end.p0(i64 24, ptr nonnull %8) #41
  call void @llvm.lifetime.start.p0(i64 24, ptr nonnull %9) #41
  call void @_ZNK2cv8FileNodeixEPKc(ptr dead_on_unwind nonnull writable sret(%"class.cv::FileNode") align 8 %9, ptr noundef nonnull align 8 dereferenceable(24) %1, ptr noundef nonnull @.str.8)
  %29 = call noundef float @_ZNK2cv8FileNodecvfEv(ptr noundef nonnull align 8 dereferenceable(24) %9)
  %30 = getelementptr inbounds nuw i8, ptr %0, i64 24
  store float %29, ptr %30, align 8, !tbaa !94
  call void @llvm.lifetime.end.p0(i64 24, ptr nonnull %9) #41
  call void @llvm.lifetime.start.p0(i64 24, ptr nonnull %10) #41
  call void @_ZNK2cv8FileNodeixEPKc(ptr dead_on_unwind nonnull writable sret(%"class.cv::FileNode") align 8 %10, ptr noundef nonnull align 8 dereferenceable(24) %1, ptr noundef nonnull @.str.9)
  %31 = call noundef i32 @_ZNK2cv8FileNodecviEv(ptr noundef nonnull align 8 dereferenceable(24) %10)
  %32 = icmp ne i32 %31, 0
  %33 = getelementptr inbounds nuw i8, ptr %0, i64 28
  %34 = zext i1 %32 to i8
  store i8 %34, ptr %33, align 4, !tbaa !95
  call void @llvm.lifetime.end.p0(i64 24, ptr nonnull %10) #41
  call void @llvm.lifetime.start.p0(i64 24, ptr nonnull %11) #41
  call void @_ZNK2cv8FileNodeixEPKc(ptr dead_on_unwind nonnull writable sret(%"class.cv::FileNode") align 8 %11, ptr noundef nonnull align 8 dereferenceable(24) %1, ptr noundef nonnull @.str.10)
  %35 = call noundef i32 @_ZNK2cv8FileNodecviEv(ptr noundef nonnull align 8 dereferenceable(24) %11)
  %36 = icmp ne i32 %35, 0
  %37 = getelementptr inbounds nuw i8, ptr %0, i64 29
  %38 = zext i1 %36 to i8
  store i8 %38, ptr %37, align 1, !tbaa !96
  call void @llvm.lifetime.end.p0(i64 24, ptr nonnull %11) #41
  call void @llvm.lifetime.start.p0(i64 24, ptr nonnull %12) #41
  call void @_ZNK2cv8FileNodeixEPKc(ptr dead_on_unwind nonnull writable sret(%"class.cv::FileNode") align 8 %12, ptr noundef nonnull align 8 dereferenceable(24) %1, ptr noundef nonnull @.str.11)
  %39 = call noundef i32 @_ZNK2cv8FileNodecviEv(ptr noundef nonnull align 8 dereferenceable(24) %12)
  %40 = getelementptr inbounds nuw i8, ptr %0, i64 32
  store i32 %39, ptr %40, align 8, !tbaa !97
  call void @llvm.lifetime.end.p0(i64 24, ptr nonnull %12) #41
  call void @llvm.lifetime.start.p0(i64 24, ptr nonnull %13) #41
  call void @_ZNK2cv8FileNodeixEPKc(ptr dead_on_unwind nonnull writable sret(%"class.cv::FileNode") align 8 %13, ptr noundef nonnull align 8 dereferenceable(24) %1, ptr noundef nonnull @.str.12)
  %41 = call noundef double @_ZNK2cv8FileNodecvdEv(ptr noundef nonnull align 8 dereferenceable(24) %13)
  %42 = getelementptr inbounds nuw i8, ptr %0, i64 40
  store double %41, ptr %42, align 8, !tbaa !98
  call void @llvm.lifetime.end.p0(i64 24, ptr nonnull %13) #41
  call void @llvm.lifetime.start.p0(i64 24, ptr nonnull %14) #41
  call void @_ZNK2cv8FileNodeixEPKc(ptr dead_on_unwind nonnull writable sret(%"class.cv::FileNode") align 8 %14, ptr noundef nonnull align 8 dereferenceable(24) %1, ptr noundef nonnull @.str.13)
  %43 = call noundef double @_ZNK2cv8FileNodecvdEv(ptr noundef nonnull align 8 dereferenceable(24) %14)
  %44 = getelementptr inbounds nuw i8, ptr %0, i64 48
  store double %43, ptr %44, align 8, !tbaa !99
  call void @llvm.lifetime.end.p0(i64 24, ptr nonnull %14) #41
  call void @llvm.lifetime.start.p0(i64 24, ptr nonnull %15) #41
  call void @_ZNK2cv8FileNodeixEPKc(ptr dead_on_unwind nonnull writable sret(%"class.cv::FileNode") align 8 %15, ptr noundef nonnull align 8 dereferenceable(24) %1, ptr noundef nonnull @.str.14)
  %45 = call noundef double @_ZNK2cv8FileNodecvdEv(ptr noundef nonnull align 8 dereferenceable(24) %15)
  %46 = getelementptr inbounds nuw i8, ptr %0, i64 56
  store double %45, ptr %46, align 8, !tbaa !100
  call void @llvm.lifetime.end.p0(i64 24, ptr nonnull %15) #41
  ret void
}